; ModuleID = '31/2042.c'
source_filename = "31/2042.c"
target datalayout = "e-m:e-p270:32:32-p271:32:32-p272:64:64-i64:64-f80:128-n8:16:32:64-S128"
target triple = "x86_64-pc-linux-gnu"

%struct.stu = type { [500 x i8], [500 x i8], [2 x i8], [100 x i8], [100 x i8], [500 x i8], %struct.stu* }

@n = common dso_local global i32 0, align 4
@.str = private unnamed_addr constant [18 x i8] c"%s %s %s %s %s %s\00", align 1
@.str.1 = private unnamed_addr constant [3 x i8] c"%s\00", align 1
@.str.2 = private unnamed_addr constant [4 x i8] c"end\00", align 1
@.str.3 = private unnamed_addr constant [15 x i8] c"%s %s %s %s %s\00", align 1
@.str.4 = private unnamed_addr constant [19 x i8] c"%s %s %s %s %s %s\0A\00", align 1

; Function Attrs: noinline nounwind uwtable
define dso_local %struct.stu* @tj() #0 {
  %1 = alloca %struct.stu*, align 8
  %2 = alloca %struct.stu*, align 8
  %3 = alloca %struct.stu*, align 8
  store i32 0, i32* @n, align 4
  %4 = call noalias i8* @malloc(i64 100) #4
  %5 = bitcast i8* %4 to %struct.stu*
  store %struct.stu* %5, %struct.stu** %2, align 8
  store %struct.stu* %5, %struct.stu** %3, align 8
  %6 = load %struct.stu*, %struct.stu** %2, align 8
  %7 = getelementptr inbounds %struct.stu, %struct.stu* %6, i32 0, i32 0
  %8 = load %struct.stu*, %struct.stu** %2, align 8
  %9 = getelementptr inbounds %struct.stu, %struct.stu* %8, i32 0, i32 1
  %10 = load %struct.stu*, %struct.stu** %2, align 8
  %11 = getelementptr inbounds %struct.stu, %struct.stu* %10, i32 0, i32 2
  %12 = load %struct.stu*, %struct.stu** %2, align 8
  %13 = getelementptr inbounds %struct.stu, %struct.stu* %12, i32 0, i32 3
  %14 = load %struct.stu*, %struct.stu** %2, align 8
  %15 = getelementptr inbounds %struct.stu, %struct.stu* %14, i32 0, i32 4
  %16 = load %struct.stu*, %struct.stu** %2, align 8
  %17 = getelementptr inbounds %struct.stu, %struct.stu* %16, i32 0, i32 5
  %18 = call i32 (i8*, ...) @__isoc99_scanf(i8* getelementptr inbounds ([18 x i8], [18 x i8]* @.str, i64 0, i64 0), [500 x i8]* %7, [500 x i8]* %9, [2 x i8]* %11, [100 x i8]* %13, [100 x i8]* %15, [500 x i8]* %17)
  store %struct.stu* null, %struct.stu** %1, align 8
  br label %19

19:                                               ; preds = %0, %43
  %20 = load i32, i32* @n, align 4
  %21 = add nsw i32 %20, 1
  store i32 %21, i32* @n, align 4
  %22 = load i32, i32* @n, align 4
  %23 = icmp eq i32 %22, 1
  br i1 %23, label %24, label %26

24:                                               ; preds = %19
  %25 = load %struct.stu*, %struct.stu** %2, align 8
  store %struct.stu* %25, %struct.stu** %1, align 8
  br label %30

26:                                               ; preds = %19
  %27 = load %struct.stu*, %struct.stu** %3, align 8
  %28 = load %struct.stu*, %struct.stu** %2, align 8
  %29 = getelementptr inbounds %struct.stu, %struct.stu* %28, i32 0, i32 6
  store %struct.stu* %27, %struct.stu** %29, align 8
  br label %30

30:                                               ; preds = %26, %24
  %31 = load %struct.stu*, %struct.stu** %2, align 8
  store %struct.stu* %31, %struct.stu** %3, align 8
  %32 = call noalias i8* @malloc(i64 100) #4
  %33 = bitcast i8* %32 to %struct.stu*
  store %struct.stu* %33, %struct.stu** %2, align 8
  %34 = load %struct.stu*, %struct.stu** %2, align 8
  %35 = getelementptr inbounds %struct.stu, %struct.stu* %34, i32 0, i32 0
  %36 = call i32 (i8*, ...) @__isoc99_scanf(i8* getelementptr inbounds ([3 x i8], [3 x i8]* @.str.1, i64 0, i64 0), [500 x i8]* %35)
  %37 = load %struct.stu*, %struct.stu** %2, align 8
  %38 = getelementptr inbounds %struct.stu, %struct.stu* %37, i32 0, i32 0
  %39 = getelementptr inbounds [500 x i8], [500 x i8]* %38, i64 0, i64 0
  %40 = call i32 @strcmp(i8* %39, i8* getelementptr inbounds ([4 x i8], [4 x i8]* @.str.2, i64 0, i64 0)) #5
  %41 = icmp eq i32 %40, 0
  br i1 %41, label %42, label %43

42:                                               ; preds = %30
  br label %55

43:                                               ; preds = %30
  %44 = load %struct.stu*, %struct.stu** %2, align 8
  %45 = getelementptr inbounds %struct.stu, %struct.stu* %44, i32 0, i32 1
  %46 = load %struct.stu*, %struct.stu** %2, align 8
  %47 = getelementptr inbounds %struct.stu, %struct.stu* %46, i32 0, i32 2
  %48 = load %struct.stu*, %struct.stu** %2, align 8
  %49 = getelementptr inbounds %struct.stu, %struct.stu* %48, i32 0, i32 3
  %50 = load %struct.stu*, %struct.stu** %2, align 8
  %51 = getelementptr inbounds %struct.stu, %struct.stu* %50, i32 0, i32 4
  %52 = load %struct.stu*, %struct.stu** %2, align 8
  %53 = getelementptr inbounds %struct.stu, %struct.stu* %52, i32 0, i32 5
  %54 = call i32 (i8*, ...) @__isoc99_scanf(i8* getelementptr inbounds ([15 x i8], [15 x i8]* @.str.3, i64 0, i64 0), [500 x i8]* %45, [2 x i8]* %47, [100 x i8]* %49, [100 x i8]* %51, [500 x i8]* %53)
  br label %19

55:                                               ; preds = %42
  %56 = load %struct.stu*, %struct.stu** %3, align 8
  store %struct.stu* %56, %struct.stu** %1, align 8
  %57 = load %struct.stu*, %struct.stu** %1, align 8
  ret %struct.stu* %57
}

; Function Attrs: nounwind
declare dso_local noalias i8* @malloc(i64) #1

declare dso_local i32 @__isoc99_scanf(i8*, ...) #2

; Function Attrs: nounwind readonly
declare dso_local i32 @strcmp(i8*, i8*) #3

; Function Attrs: noinline nounwind uwtable
define dso_local void @print(%struct.stu* %0) #0 {
  %2 = alloca %struct.stu*, align 8
  %3 = alloca %struct.stu*, align 8
  store %struct.stu* %0, %struct.stu** %2, align 8
  %4 = load %struct.stu*, %struct.stu** %2, align 8
  store %struct.stu* %4, %struct.stu** %3, align 8
  br label %5

5:                                                ; preds = %8, %1
  %6 = load %struct.stu*, %struct.stu** %3, align 8
  %7 = icmp ne %struct.stu* %6, null
  br i1 %7, label %8, label %31

8:                                                ; preds = %5
  %9 = load %struct.stu*, %struct.stu** %3, align 8
  %10 = getelementptr inbounds %struct.stu, %struct.stu* %9, i32 0, i32 0
  %11 = getelementptr inbounds [500 x i8], [500 x i8]* %10, i64 0, i64 0
  %12 = load %struct.stu*, %struct.stu** %3, align 8
  %13 = getelementptr inbounds %struct.stu, %struct.stu* %12, i32 0, i32 1
  %14 = getelementptr inbounds [500 x i8], [500 x i8]* %13, i64 0, i64 0
  %15 = load %struct.stu*, %struct.stu** %3, align 8
  %16 = getelementptr inbounds %struct.stu, %struct.stu* %15, i32 0, i32 2
  %17 = getelementptr inbounds [2 x i8], [2 x i8]* %16, i64 0, i64 0
  %18 = load %struct.stu*, %struct.stu** %3, align 8
  %19 = getelementptr inbounds %struct.stu, %struct.stu* %18, i32 0, i32 3
  %20 = getelementptr inbounds [100 x i8], [100 x i8]* %19, i64 0, i64 0
  %21 = load %struct.stu*, %struct.stu** %3, align 8
  %22 = getelementptr inbounds %struct.stu, %struct.stu* %21, i32 0, i32 4
  %23 = getelementptr inbounds [100 x i8], [100 x i8]* %22, i64 0, i64 0
  %24 = load %struct.stu*, %struct.stu** %3, align 8
  %25 = getelementptr inbounds %struct.stu, %struct.stu* %24, i32 0, i32 5
  %26 = getelementptr inbounds [500 x i8], [500 x i8]* %25, i64 0, i64 0
  %27 = call i32 (i8*, ...) @printf(i8* getelementptr inbounds ([19 x i8], [19 x i8]* @.str.4, i64 0, i64 0), i8* %11, i8* %14, i8* %17, i8* %20, i8* %23, i8* %26)
  %28 = load %struct.stu*, %struct.stu** %3, align 8
  %29 = getelementptr inbounds %struct.stu, %struct.stu* %28, i32 0, i32 6
  %30 = load %struct.stu*, %struct.stu** %29, align 8
  store %struct.stu* %30, %struct.stu** %3, align 8
  br label %5

31:                                               ; preds = %5
  ret void
}

declare dso_local i32 @printf(i8*, ...) #2

; Function Attrs: noinline nounwind uwtable
define dso_local void @main() #0 {
  %1 = alloca %struct.stu*, align 8
  %2 = call %struct.stu* @tj()
  store %struct.stu* %2, %struct.stu** %1, align 8
  %3 = load %struct.stu*, %struct.stu** %1, align 8
  call void @print(%struct.stu* %3)
  ret void
}


!llvm.module.flags = !{!0}
!llvm.ident = !{!1}

!0 = !{i32 1, !"wchar_size", i32 4}
!1 = !{!"clang version 10.0.0-4ubuntu1 "}
